; Function Attrs: mustprogress uwtable
define void @_ZN4toku12range_buffer12append_rangeEPK10__toku_dbtS3_b(ptr noundef nonnull align 8 dereferenceable(60) %0, ptr noundef %1, ptr noundef %2, i1 noundef zeroext %3) local_unnamed_addr #1 align 2 {
  %5 = getelementptr inbounds nuw i8, ptr %1, i64 8
  %6 = load i64, ptr %5, align 8, !tbaa !15
  %7 = add i64 %6, 10
  %8 = getelementptr inbounds nuw i8, ptr %2, i64 8
  %9 = load i64, ptr %8, align 8, !tbaa !15
  %10 = add i64 %7, %9
  %11 = tail call noundef ptr @_ZN8memarena17malloc_from_arenaEm(ptr noundef nonnull align 8 dereferenceable(56) %0, i64 noundef %10)
  %12 = zext i1 %3 to i8
  %13 = tail call noundef ptr @_Z26toku_dbt_negative_infinityv()
  %14 = icmp eq ptr %1, %13
  %15 = zext i1 %14 to i8
  %16 = tail call noundef ptr @_Z26toku_dbt_positive_infinityv()
  %17 = icmp eq ptr %1, %16
  %18 = zext i1 %17 to i8
  %19 = tail call noundef zeroext i1 @_Z20toku_dbt_is_infinitePK10__toku_dbt(ptr noundef %1)
  br i1 %19, label %23, label %20

20:                                               ; preds = %4
  %21 = load i64, ptr %5, align 8, !tbaa !15
  %22 = trunc i64 %21 to i16
  br label %23

23:                                               ; preds = %4, %20
  %24 = phi i16 [ %22, %20 ], [ 0, %4 ]
  %25 = tail call noundef ptr @_Z26toku_dbt_negative_infinityv()
  %26 = icmp eq ptr %2, %25
  %27 = zext i1 %26 to i8
  %28 = tail call noundef ptr @_Z26toku_dbt_positive_infinityv()
  %29 = icmp eq ptr %2, %28
  %30 = zext i1 %29 to i8
  %31 = tail call noundef zeroext i1 @_Z20toku_dbt_is_infinitePK10__toku_dbt(ptr noundef nonnull %2)
  br i1 %31, label %_ZN4toku12range_buffer13record_header4initEPK10__toku_dbtS4_b.exit, label %32

32:                                               ; preds = %23
  %33 = load i64, ptr %8, align 8, !tbaa !15
  %34 = trunc i64 %33 to i16
  br label %_ZN4toku12range_buffer13record_header4initEPK10__toku_dbtS4_b.exit

_ZN4toku12range_buffer13record_header4initEPK10__toku_dbtS4_b.exit: ; preds = %23, %32
  %.sink.i = phi i16 [ %34, %32 ], [ 0, %23 ]
  store i8 %15, ptr %11, align 1
  %.sroa.6.0..sroa_idx = getelementptr inbounds nuw i8, ptr %11, i64 1
  store i8 %18, ptr %.sroa.6.0..sroa_idx, align 1
  %.sroa.9.0..sroa_idx = getelementptr inbounds nuw i8, ptr %11, i64 2
  store i8 %30, ptr %.sroa.9.0..sroa_idx, align 1
  %.sroa.12.0..sroa_idx = getelementptr inbounds nuw i8, ptr %11, i64 3
  store i8 %27, ptr %.sroa.12.0..sroa_idx, align 1
  %.sroa.15.0..sroa_idx = getelementptr inbounds nuw i8, ptr %11, i64 4
  store i16 %24, ptr %.sroa.15.0..sroa_idx, align 1
  %.sroa.16.0..sroa_idx = getelementptr inbounds nuw i8, ptr %11, i64 6
  store i16 %.sink.i, ptr %.sroa.16.0..sroa_idx, align 1
  %.sroa.17.0..sroa_idx = getelementptr inbounds nuw i8, ptr %11, i64 8
  store i8 %12, ptr %.sroa.17.0..sroa_idx, align 1
  %35 = getelementptr inbounds nuw i8, ptr %11, i64 10
  %36 = or i1 %14, %17
  br i1 %36, label %42, label %37

37:                                               ; preds = %_ZN4toku12range_buffer13record_header4initEPK10__toku_dbtS4_b.exit
  %38 = load ptr, ptr %1, align 8, !tbaa !45
  %39 = load i64, ptr %5, align 8, !tbaa !15
  tail call void @llvm.memcpy.p0.p0.i64(ptr nonnull align 1 %35, ptr align 1 %38, i64 %39, i1 false)
  %40 = load i64, ptr %5, align 8, !tbaa !15
  %41 = getelementptr inbounds nuw i8, ptr %35, i64 %40
  br label %42

42:                                               ; preds = %37, %_ZN4toku12range_buffer13record_header4initEPK10__toku_dbtS4_b.exit
  %.0 = phi ptr [ %35, %_ZN4toku12range_buffer13record_header4initEPK10__toku_dbtS4_b.exit ], [ %41, %37 ]
  %43 = or i1 %26, %29
  br i1 %43, label %47, label %44

44:                                               ; preds = %42
  %45 = load ptr, ptr %2, align 8, !tbaa !45
  %46 = load i64, ptr %8, align 8, !tbaa !15
  tail call void @llvm.memcpy.p0.p0.i64(ptr nonnull align 1 %.0, ptr align 1 %45, i64 %46, i1 false)
  br label %47

47:                                               ; preds = %44, %42
  ret void
}